target datalayout = "e-m:e-p270:32:32-p271:32:32-p272:64:64-i64:64-i128:128-f80:128-n8:16:32:64-S128"
target triple = "x86_64-pc-linux-gnu"

%struct.Csw_Man_t_ = type { ptr, ptr, ptr, ptr, ptr, ptr, i32, i32, i32, i32, i32, i32, ptr, [4 x ptr], i32, i32, i32, i32, i32, i64, i64, i64, i64 }
%struct.Csw_Cut_t_ = type { ptr, i32, i32, i32, i16, i8, i8, [0 x i32] }

; Function Attrs: inlinehint nounwind uwtable
define internal i32 @Kit_WordCountOnes(i32 noundef %0) #1 {
  %2 = alloca i32, align 4
  store i32 %0, ptr %2, align 4, !tbaa !10
  %3 = load i32, ptr %2, align 4, !tbaa !10
  %4 = and i32 %3, 1431655765
  %5 = load i32, ptr %2, align 4, !tbaa !10
  %6 = lshr i32 %5, 1
  %7 = and i32 %6, 1431655765
  %8 = add i32 %4, %7
  store i32 %8, ptr %2, align 4, !tbaa !10
  %9 = load i32, ptr %2, align 4, !tbaa !10
  %10 = and i32 %9, 858993459
  %11 = load i32, ptr %2, align 4, !tbaa !10
  %12 = lshr i32 %11, 2
  %13 = and i32 %12, 858993459
  %14 = add i32 %10, %13
  store i32 %14, ptr %2, align 4, !tbaa !10
  %15 = load i32, ptr %2, align 4, !tbaa !10
  %16 = and i32 %15, 252645135
  %17 = load i32, ptr %2, align 4, !tbaa !10
  %18 = lshr i32 %17, 4
  %19 = and i32 %18, 252645135
  %20 = add i32 %16, %19
  store i32 %20, ptr %2, align 4, !tbaa !10
  %21 = load i32, ptr %2, align 4, !tbaa !10
  %22 = and i32 %21, 16711935
  %23 = load i32, ptr %2, align 4, !tbaa !10
  %24 = lshr i32 %23, 8
  %25 = and i32 %24, 16711935
  %26 = add i32 %22, %25
  store i32 %26, ptr %2, align 4, !tbaa !10
  %27 = load i32, ptr %2, align 4, !tbaa !10
  %28 = and i32 %27, 65535
  %29 = load i32, ptr %2, align 4, !tbaa !10
  %30 = lshr i32 %29, 16
  %31 = add i32 %28, %30
  ret i32 %31
}

; Function Attrs: inlinehint nounwind uwtable
define internal ptr @Csw_CutTruth(ptr noundef %0) #1 {
  %2 = alloca ptr, align 8
  store ptr %0, ptr %2, align 8, !tbaa !8
  %3 = load ptr, ptr %2, align 8, !tbaa !8
  %4 = getelementptr inbounds nuw %struct.Csw_Cut_t_, ptr %3, i32 0, i32 7
  %5 = getelementptr inbounds [0 x i32], ptr %4, i64 0, i64 0
  %6 = load ptr, ptr %2, align 8, !tbaa !8
  %7 = getelementptr inbounds nuw %struct.Csw_Cut_t_, ptr %6, i32 0, i32 5
  %8 = load i8, ptr %7, align 2, !tbaa !26
  %9 = sext i8 %8 to i32
  %10 = sext i32 %9 to i64
  %11 = getelementptr inbounds i32, ptr %5, i64 %10
  ret ptr %11
}

; Function Attrs: nounwind uwtable
define i32 @Csw_CutSupportMinimize(ptr noundef %0, ptr noundef %1) #0 {
  %3 = alloca i32, align 4
  %4 = alloca ptr, align 8
  %5 = alloca ptr, align 8
  %6 = alloca ptr, align 8
  %7 = alloca i32, align 4
  %8 = alloca i32, align 4
  %9 = alloca i32, align 4
  %10 = alloca i32, align 4
  %11 = alloca i32, align 4
  store ptr %0, ptr %4, align 8, !tbaa !3
  store ptr %1, ptr %5, align 8, !tbaa !8
  call void @llvm.lifetime.start.p0(i64 8, ptr %6) #6
  call void @llvm.lifetime.start.p0(i64 4, ptr %7) #6
  call void @llvm.lifetime.start.p0(i64 4, ptr %8) #6
  call void @llvm.lifetime.start.p0(i64 4, ptr %9) #6
  call void @llvm.lifetime.start.p0(i64 4, ptr %10) #6
  %12 = load ptr, ptr %5, align 8, !tbaa !8
  %13 = call ptr @Csw_CutTruth(ptr noundef %12)
  store ptr %13, ptr %6, align 8, !tbaa !12
  %14 = load ptr, ptr %6, align 8, !tbaa !12
  %15 = load ptr, ptr %4, align 8, !tbaa !3
  %16 = getelementptr inbounds nuw %struct.Csw_Man_t_, ptr %15, i32 0, i32 8
  %17 = load i32, ptr %16, align 8, !tbaa !14
  %18 = call i32 @Kit_TruthSupport(ptr noundef %14, i32 noundef %17)
  store i32 %18, ptr %7, align 4, !tbaa !10
  %19 = load i32, ptr %7, align 4, !tbaa !10
  %20 = call i32 @Kit_WordCountOnes(i32 noundef %19)
  store i32 %20, ptr %8, align 4, !tbaa !10
  %21 = load i32, ptr %8, align 4, !tbaa !10
  %22 = load ptr, ptr %5, align 8, !tbaa !8
  %23 = getelementptr inbounds nuw %struct.Csw_Cut_t_, ptr %22, i32 0, i32 6
  %24 = load i8, ptr %23, align 1, !tbaa !21
  %25 = sext i8 %24 to i32
  %26 = icmp eq i32 %21, %25
  br i1 %26, label %27, label %29

27:                                               ; preds = %2
  %28 = load i32, ptr %8, align 4, !tbaa !10
  store i32 %28, ptr %3, align 4
  store i32 1, ptr %11, align 4
  br label %76

29:                                               ; preds = %2
  %30 = load ptr, ptr %4, align 8, !tbaa !3
  %31 = getelementptr inbounds nuw %struct.Csw_Man_t_, ptr %30, i32 0, i32 13
  %32 = getelementptr inbounds [4 x ptr], ptr %31, i64 0, i64 0
  %33 = load ptr, ptr %32, align 8, !tbaa !12
  %34 = load ptr, ptr %6, align 8, !tbaa !12
  %35 = load i32, ptr %8, align 4, !tbaa !10
  %36 = load ptr, ptr %4, align 8, !tbaa !3
  %37 = getelementptr inbounds nuw %struct.Csw_Man_t_, ptr %36, i32 0, i32 8
  %38 = load i32, ptr %37, align 8, !tbaa !14
  %39 = load i32, ptr %7, align 4, !tbaa !10
  call void @Kit_TruthShrink(ptr noundef %33, ptr noundef %34, i32 noundef %35, i32 noundef %38, i32 noundef %39, i32 noundef 1)
  store i32 0, ptr %10, align 4, !tbaa !10
  store i32 0, ptr %9, align 4, !tbaa !10
  br label %40

40:                                               ; preds = %67, %29
  %41 = load i32, ptr %9, align 4, !tbaa !10
  %42 = load ptr, ptr %5, align 8, !tbaa !8
  %43 = getelementptr inbounds nuw %struct.Csw_Cut_t_, ptr %42, i32 0, i32 6
  %44 = load i8, ptr %43, align 1, !tbaa !21
  %45 = sext i8 %44 to i32
  %46 = icmp slt i32 %41, %45
  br i1 %46, label %47, label %70

47:                                               ; preds = %40
  %48 = load i32, ptr %7, align 4, !tbaa !10
  %49 = load i32, ptr %9, align 4, !tbaa !10
  %50 = shl i32 1, %49
  %51 = and i32 %48, %50
  %52 = icmp ne i32 %51, 0
  br i1 %52, label %53, label %66

53:                                               ; preds = %47
  %54 = load ptr, ptr %5, align 8, !tbaa !8
  %55 = getelementptr inbounds nuw %struct.Csw_Cut_t_, ptr %54, i32 0, i32 7
  %56 = load i32, ptr %9, align 4, !tbaa !10
  %57 = sext i32 %56 to i64
  %58 = getelementptr inbounds [0 x i32], ptr %55, i64 0, i64 %57
  %59 = load i32, ptr %58, align 4, !tbaa !10
  %60 = load ptr, ptr %5, align 8, !tbaa !8
  %61 = getelementptr inbounds nuw %struct.Csw_Cut_t_, ptr %60, i32 0, i32 7
  %62 = load i32, ptr %10, align 4, !tbaa !10
  %63 = add nsw i32 %62, 1
  store i32 %63, ptr %10, align 4, !tbaa !10
  %64 = sext i32 %62 to i64
  %65 = getelementptr inbounds [0 x i32], ptr %61, i64 0, i64 %64
  store i32 %59, ptr %65, align 4, !tbaa !10
  br label %66

66:                                               ; preds = %53, %47
  br label %67

67:                                               ; preds = %66
  %68 = load i32, ptr %9, align 4, !tbaa !10
  %69 = add nsw i32 %68, 1
  store i32 %69, ptr %9, align 4, !tbaa !10
  br label %40, !llvm.loop !30

70:                                               ; preds = %40
  %71 = load i32, ptr %8, align 4, !tbaa !10
  %72 = trunc i32 %71 to i8
  %73 = load ptr, ptr %5, align 8, !tbaa !8
  %74 = getelementptr inbounds nuw %struct.Csw_Cut_t_, ptr %73, i32 0, i32 6
  store i8 %72, ptr %74, align 1, !tbaa !21
  %75 = load i32, ptr %8, align 4, !tbaa !10
  store i32 %75, ptr %3, align 4
  store i32 1, ptr %11, align 4
  br label %76

76:                                               ; preds = %70, %27
  call void @llvm.lifetime.end.p0(i64 4, ptr %10) #6
  call void @llvm.lifetime.end.p0(i64 4, ptr %9) #6
  call void @llvm.lifetime.end.p0(i64 4, ptr %8) #6
  call void @llvm.lifetime.end.p0(i64 4, ptr %7) #6
  call void @llvm.lifetime.end.p0(i64 8, ptr %6) #6
  %77 = load i32, ptr %3, align 4
  ret i32 %77
}